target datalayout = "e-m:e-p270:32:32-p271:32:32-p272:64:64-i64:64-i128:128-f80:128-n8:16:32:64-S128"
target triple = "x86_64-pc-linux-gnu"

%struct.BuildCtx = type { ptr, i32, ptr, ptr, ptr, ptr, i64, i32, i32, i32, i32, i32, ptr, ptr, ptr, ptr, ptr, ptr, ptr, ptr, ptr, [200 x %struct.BuildReloc] }
%struct.BuildReloc = type { i32, i32, i32 }

@ffid = internal global i32 0, align 4
@ffasmfunc = internal global i32 0, align 4
@stderr = external global ptr, align 8
@modstate = internal global i32 0, align 4
@.str.9 = private unnamed_addr constant [7 x i8] c"LJLIB_\00", align 1
@obuf = internal global [8192 x i8] zeroinitializer, align 16
@optr = internal global ptr null, align 8
@.str.34 = private unnamed_addr constant [20 x i8] c"#ifdef %sMODULE_%s\0A\00", align 1
@.str.35 = private unnamed_addr constant [20 x i8] c"#undef %sMODULE_%s\0A\00", align 1
@.str.36 = private unnamed_addr constant [39 x i8] c"static const lua_CFunction %s%s[] = {\0A\00", align 1
@.str.37 = private unnamed_addr constant [11 x i8] c"lj_lib_cf_\00", align 1
@modnamelen = internal global i64 0, align 8
@.str.38 = private unnamed_addr constant [35 x i8] c"Error: module name too long: '%s'\0A\00", align 1
@modname = internal global [80 x i8] zeroinitializer, align 16

; Function Attrs: nounwind uwtable
define internal void @libdef_module(ptr noundef %0, ptr noundef %1, i32 noundef %2) #0 {
  %4 = alloca ptr, align 8
  %5 = alloca ptr, align 8
  %6 = alloca i32, align 4
  store ptr %0, ptr %4, align 8, !tbaa !4
  store ptr %1, ptr %5, align 8, !tbaa !22
  store i32 %2, ptr %6, align 4, !tbaa !20
  %7 = load ptr, ptr %4, align 8, !tbaa !4
  %8 = getelementptr inbounds nuw %struct.BuildCtx, ptr %7, i32 0, i32 1
  %9 = load i32, ptr %8, align 8, !tbaa !9
  %10 = icmp eq i32 %9, 7
  br i1 %10, label %11, label %38

11:                                               ; preds = %3
  %12 = load ptr, ptr %4, align 8, !tbaa !4
  call void @libdef_endmodule(ptr noundef %12)
  store ptr @obuf, ptr @optr, align 8, !tbaa !22
  %13 = load i32, ptr @ffid, align 4, !tbaa !20
  %14 = trunc i32 %13 to i8
  %15 = load ptr, ptr @optr, align 8, !tbaa !22
  %16 = getelementptr inbounds nuw i8, ptr %15, i32 1
  store ptr %16, ptr @optr, align 8, !tbaa !22
  store i8 %14, ptr %15, align 1, !tbaa !23
  %17 = load i32, ptr @ffasmfunc, align 4, !tbaa !20
  %18 = trunc i32 %17 to i8
  %19 = load ptr, ptr @optr, align 8, !tbaa !22
  %20 = getelementptr inbounds nuw i8, ptr %19, i32 1
  store ptr %20, ptr @optr, align 8, !tbaa !22
  store i8 %18, ptr %19, align 1, !tbaa !23
  %21 = load ptr, ptr @optr, align 8, !tbaa !22
  %22 = getelementptr inbounds nuw i8, ptr %21, i32 1
  store ptr %22, ptr @optr, align 8, !tbaa !22
  store i8 0, ptr %21, align 1, !tbaa !23
  store i32 1, ptr @modstate, align 4, !tbaa !20
  %23 = load ptr, ptr %4, align 8, !tbaa !4
  %24 = getelementptr inbounds nuw %struct.BuildCtx, ptr %23, i32 0, i32 2
  %25 = load ptr, ptr %24, align 8, !tbaa !19
  %26 = load ptr, ptr %5, align 8, !tbaa !22
  %27 = call i32 (ptr, ptr, ...) @fprintf(ptr noundef %25, ptr noundef @.str.34, ptr noundef @.str.9, ptr noundef %26) #9
  %28 = load ptr, ptr %4, align 8, !tbaa !4
  %29 = getelementptr inbounds nuw %struct.BuildCtx, ptr %28, i32 0, i32 2
  %30 = load ptr, ptr %29, align 8, !tbaa !19
  %31 = load ptr, ptr %5, align 8, !tbaa !22
  %32 = call i32 (ptr, ptr, ...) @fprintf(ptr noundef %30, ptr noundef @.str.35, ptr noundef @.str.9, ptr noundef %31) #9
  %33 = load ptr, ptr %4, align 8, !tbaa !4
  %34 = getelementptr inbounds nuw %struct.BuildCtx, ptr %33, i32 0, i32 2
  %35 = load ptr, ptr %34, align 8, !tbaa !19
  %36 = load ptr, ptr %5, align 8, !tbaa !22
  %37 = call i32 (ptr, ptr, ...) @fprintf(ptr noundef %35, ptr noundef @.str.36, ptr noundef @.str.37, ptr noundef %36) #9
  br label %38

38:                                               ; preds = %11, %3
  %39 = load ptr, ptr %5, align 8, !tbaa !22
  %40 = call i64 @strlen(ptr noundef %39) #12
  store i64 %40, ptr @modnamelen, align 8, !tbaa !25
  %41 = load i64, ptr @modnamelen, align 8, !tbaa !25
  %42 = icmp ugt i64 %41, 79
  br i1 %42, label %43, label %47

43:                                               ; preds = %38
  %44 = load ptr, ptr @stderr, align 8, !tbaa !24
  %45 = load ptr, ptr %5, align 8, !tbaa !22
  %46 = call i32 (ptr, ptr, ...) @fprintf(ptr noundef %44, ptr noundef @.str.38, ptr noundef %45) #9
  call void @exit(i32 noundef 1) #11
  unreachable

47:                                               ; preds = %38
  %48 = load ptr, ptr %5, align 8, !tbaa !22
  %49 = call ptr @strcpy(ptr noundef @modname, ptr noundef %48) #9
  ret void
}