; Function Attrs: nofree nounwind uwtable
define internal void @libdef_module(ptr noundef readonly captures(none) %0, ptr noundef %1, i32 %2) #7 {
  %4 = getelementptr inbounds nuw i8, ptr %0, i64 8
  %5 = load i32, ptr %4, align 8, !tbaa !4
  %6 = icmp eq i32 %5, 7
  br i1 %6, label %7, label %19

7:                                                ; preds = %3
  tail call fastcc void @libdef_endmodule(ptr noundef nonnull %0)
  %8 = load i32, ptr @ffid, align 4, !tbaa !18
  %9 = trunc i32 %8 to i8
  store i8 %9, ptr @obuf, align 16, !tbaa !21
  %10 = load i32, ptr @ffasmfunc, align 4, !tbaa !18
  %11 = trunc i32 %10 to i8
  store i8 %11, ptr getelementptr inbounds nuw (i8, ptr @obuf, i64 1), align 1, !tbaa !21
  store ptr getelementptr inbounds nuw (i8, ptr @obuf, i64 3), ptr @optr, align 8, !tbaa !20
  store i8 0, ptr getelementptr inbounds nuw (i8, ptr @obuf, i64 2), align 2, !tbaa !21
  store i32 1, ptr @modstate, align 4, !tbaa !18
  %12 = getelementptr inbounds nuw i8, ptr %0, i64 16
  %13 = load ptr, ptr %12, align 8, !tbaa !17
  %14 = tail call i32 (ptr, ptr, ...) @fprintf(ptr noundef %13, ptr noundef nonnull @.str.34, ptr noundef nonnull @.str.9, ptr noundef %1) #14
  %15 = load ptr, ptr %12, align 8, !tbaa !17
  %16 = tail call i32 (ptr, ptr, ...) @fprintf(ptr noundef %15, ptr noundef nonnull @.str.35, ptr noundef nonnull @.str.9, ptr noundef %1) #14
  %17 = load ptr, ptr %12, align 8, !tbaa !17
  %18 = tail call i32 (ptr, ptr, ...) @fprintf(ptr noundef %17, ptr noundef nonnull @.str.36, ptr noundef nonnull @.str.37, ptr noundef %1) #14
  br label %19

19:                                               ; preds = %7, %3
  %20 = tail call i64 @strlen(ptr noundef nonnull dereferenceable(1) %1) #18
  store i64 %20, ptr @modnamelen, align 8, !tbaa !36
  %21 = icmp ugt i64 %20, 79
  br i1 %21, label %22, label %25

22:                                               ; preds = %19
  %23 = load ptr, ptr @stderr, align 8, !tbaa !22
  %24 = tail call i32 (ptr, ptr, ...) @fprintf(ptr noundef %23, ptr noundef nonnull @.str.38, ptr noundef nonnull %1) #16
  tail call void @exit(i32 noundef 1) #17
  unreachable

25:                                               ; preds = %19
  %26 = tail call ptr @strcpy(ptr noundef nonnull dereferenceable(1) @modname, ptr noundef nonnull dereferenceable(1) %1) #14
  ret void
}